; Function Attrs: nounwind uwtable
define hidden range(i32 0, 3) i32 @exr_attr_opaquedata_destroy(ptr noundef %0, ptr noundef %1) local_unnamed_addr #0 {
  %.not = icmp eq ptr %0, null
  br i1 %.not, label %24, label %3

3:                                                ; preds = %2
  %.not18 = icmp eq ptr %1, null
  br i1 %.not18, label %24, label %4

4:                                                ; preds = %3
  %5 = getelementptr inbounds nuw i8, ptr %1, i64 16
  %6 = load ptr, ptr %5, align 8, !tbaa !24
  %.not19 = icmp eq ptr %6, null
  br i1 %.not19, label %14, label %7

7:                                                ; preds = %4
  %8 = getelementptr inbounds nuw i8, ptr %1, i64 8
  %9 = load i32, ptr %8, align 8, !tbaa !28
  %10 = icmp sgt i32 %9, 0
  br i1 %10, label %11, label %14

11:                                               ; preds = %7
  %12 = getelementptr inbounds nuw i8, ptr %0, i64 96
  %13 = load ptr, ptr %12, align 8, !tbaa !29
  tail call void %13(ptr noundef nonnull %6) #4
  br label %14

14:                                               ; preds = %11, %7, %4
  %15 = getelementptr inbounds nuw i8, ptr %1, i64 24
  %16 = load ptr, ptr %15, align 8, !tbaa !30
  %.not20 = icmp eq ptr %16, null
  br i1 %.not20, label %23, label %17

17:                                               ; preds = %14
  %18 = getelementptr inbounds nuw i8, ptr %1, i64 48
  %19 = load ptr, ptr %18, align 8, !tbaa !31
  %.not21 = icmp eq ptr %19, null
  br i1 %.not21, label %23, label %20

20:                                               ; preds = %17
  %21 = getelementptr inbounds nuw i8, ptr %1, i64 4
  %22 = load i32, ptr %21, align 4, !tbaa !32
  tail call void %19(ptr noundef nonnull %0, ptr noundef nonnull %16, i32 noundef %22) #4
  br label %23

23:                                               ; preds = %20, %17, %14
  tail call void @llvm.memset.p0.i64(ptr noundef nonnull align 8 dereferenceable(56) %1, i8 0, i64 56, i1 false)
  br label %24

24:                                               ; preds = %3, %23, %2
  %.0 = phi i32 [ 2, %2 ], [ 0, %23 ], [ 0, %3 ]
  ret i32 %.0
}